; Function Attrs: nounwind uwtable
define ptr @l_Array_foldlMUnsafe_fold___at_Lake_LeanLib_recBuildShared___spec__5___boxed(ptr noundef %0, ptr noundef %1, ptr noundef %2, ptr noundef %3, ptr noundef %4, ptr noundef %5, ptr noundef %6, ptr noundef %7, ptr noundef %8, ptr noundef %9, ptr noundef %10) local_unnamed_addr #0 {
  %12 = getelementptr i8, ptr %2, i64 8
  %.val22 = load i64, ptr %12, align 8, !tbaa !12
  %13 = ptrtoint ptr %2 to i64
  %14 = and i64 %13, 1
  %.not = icmp eq i64 %14, 0
  br i1 %.not, label %15, label %lean_dec.exit17

15:                                               ; preds = %11
  %16 = load i32, ptr %2, align 4, !tbaa !8
  %17 = icmp sgt i32 %16, 1
  br i1 %17, label %18, label %20, !prof !11

18:                                               ; preds = %15
  %19 = add nsw i32 %16, -1
  store i32 %19, ptr %2, align 4, !tbaa !8
  br label %lean_dec.exit17

20:                                               ; preds = %15
  %.not.i = icmp eq i32 %16, 0
  br i1 %.not.i, label %lean_dec.exit17, label %21

21:                                               ; preds = %20
  tail call void @lean_dec_ref_cold(ptr noundef nonnull %2) #6
  br label %lean_dec.exit17

lean_dec.exit17:                                  ; preds = %21, %20, %18, %11
  %22 = getelementptr i8, ptr %3, i64 8
  %.val = load i64, ptr %22, align 8, !tbaa !12
  %23 = ptrtoint ptr %3 to i64
  %24 = and i64 %23, 1
  %.not23 = icmp eq i64 %24, 0
  br i1 %.not23, label %25, label %lean_dec.exit16

25:                                               ; preds = %lean_dec.exit17
  %26 = load i32, ptr %3, align 4, !tbaa !8
  %27 = icmp sgt i32 %26, 1
  br i1 %27, label %28, label %30, !prof !11

28:                                               ; preds = %25
  %29 = add nsw i32 %26, -1
  store i32 %29, ptr %3, align 4, !tbaa !8
  br label %lean_dec.exit16

30:                                               ; preds = %25
  %.not.i18 = icmp eq i32 %26, 0
  br i1 %.not.i18, label %lean_dec.exit16, label %31

31:                                               ; preds = %30
  tail call void @lean_dec_ref_cold(ptr noundef nonnull %3) #6
  br label %lean_dec.exit16

lean_dec.exit16:                                  ; preds = %31, %30, %28, %lean_dec.exit17
  %32 = tail call ptr @l_Array_foldlMUnsafe_fold___at_Lake_LeanLib_recBuildShared___spec__5(ptr noundef %0, ptr noundef %1, i64 noundef %.val22, i64 noundef %.val, ptr noundef %4, ptr noundef %5, ptr noundef %6, ptr noundef %7, ptr noundef %8, ptr noundef %9, ptr noundef %10)
  %33 = ptrtoint ptr %1 to i64
  %34 = and i64 %33, 1
  %.not24 = icmp eq i64 %34, 0
  br i1 %.not24, label %35, label %lean_dec.exit

35:                                               ; preds = %lean_dec.exit16
  %36 = load i32, ptr %1, align 4, !tbaa !8
  %37 = icmp sgt i32 %36, 1
  br i1 %37, label %38, label %40, !prof !11

38:                                               ; preds = %35
  %39 = add nsw i32 %36, -1
  store i32 %39, ptr %1, align 4, !tbaa !8
  br label %lean_dec.exit

40:                                               ; preds = %35
  %.not.i20 = icmp eq i32 %36, 0
  br i1 %.not.i20, label %lean_dec.exit, label %41

41:                                               ; preds = %40
  tail call void @lean_dec_ref_cold(ptr noundef nonnull %1) #6
  br label %lean_dec.exit

lean_dec.exit:                                    ; preds = %41, %40, %38, %lean_dec.exit16
  ret ptr %32
}